target datalayout = "e-m:e-p270:32:32-p271:32:32-p272:64:64-i64:64-i128:128-f80:128-n8:16:32:64-S128"
target triple = "x86_64-pc-linux-gnu"

%class.Ui_LBMStreamDialog = type { ptr, ptr, ptr, ptr, ptr, ptr, ptr, ptr, ptr }
%class.LBMStreamDialog = type { %class.QDialog, ptr, ptr, ptr }
%class.QDialog = type { %class.QWidget }
%class.QWidget = type { %class.QObject, %class.QPaintDevice.base, ptr }
%class.QObject = type { ptr, %class.QScopedPointer }
%class.QScopedPointer = type { ptr }
%class.QPaintDevice.base = type <{ ptr, i16 }>

; Function Attrs: mustprogress uwtable
define void @_ZN15LBMStreamDialog14setCaptureFileEP13_capture_file(ptr noundef nonnull align 8 dereferenceable(64) %0, ptr noundef %1) #0 align 2 {
  %3 = alloca ptr, align 8
  %4 = alloca ptr, align 8
  store ptr %0, ptr %3, align 8
  store ptr %1, ptr %4, align 8
  %5 = load ptr, ptr %3, align 8
  %6 = load ptr, ptr %4, align 8
  %7 = icmp eq ptr %6, null
  br i1 %7, label %8, label %18

8:                                                ; preds = %2
  %9 = getelementptr inbounds %class.LBMStreamDialog, ptr %5, i32 0, i32 3
  store ptr null, ptr %9, align 8
  %10 = getelementptr inbounds %class.LBMStreamDialog, ptr %5, i32 0, i32 1
  %11 = load ptr, ptr %10, align 8
  %12 = getelementptr inbounds %class.Ui_LBMStreamDialog, ptr %11, i32 0, i32 6
  %13 = load ptr, ptr %12, align 8
  call void @_ZN7QWidget10setEnabledEb(ptr noundef nonnull align 8 dereferenceable(40) %13, i1 noundef zeroext false)
  %14 = getelementptr inbounds %class.LBMStreamDialog, ptr %5, i32 0, i32 1
  %15 = load ptr, ptr %14, align 8
  %16 = getelementptr inbounds %class.Ui_LBMStreamDialog, ptr %15, i32 0, i32 7
  %17 = load ptr, ptr %16, align 8
  call void @_ZN7QWidget10setEnabledEb(ptr noundef nonnull align 8 dereferenceable(40) %17, i1 noundef zeroext false)
  br label %18

18:                                               ; preds = %8, %2
  ret void
}