; Function Attrs: mustprogress uwtable
define void @_ZN15LBMStreamDialog14setCaptureFileEP13_capture_file(ptr nocapture noundef nonnull align 8 dereferenceable(64) %0, ptr noundef readnone %1) local_unnamed_addr #0 align 2 {
  %3 = icmp eq ptr %1, null
  br i1 %3, label %4, label %13

4:                                                ; preds = %2
  %5 = getelementptr inbounds i8, ptr %0, i64 56
  store ptr null, ptr %5, align 8
  %6 = getelementptr inbounds i8, ptr %0, i64 40
  %7 = load ptr, ptr %6, align 8
  %8 = getelementptr inbounds i8, ptr %7, i64 48
  %9 = load ptr, ptr %8, align 8
  tail call void @_ZN7QWidget10setEnabledEb(ptr noundef nonnull align 8 dereferenceable(40) %9, i1 noundef zeroext false)
  %10 = load ptr, ptr %6, align 8
  %11 = getelementptr inbounds i8, ptr %10, i64 56
  %12 = load ptr, ptr %11, align 8
  tail call void @_ZN7QWidget10setEnabledEb(ptr noundef nonnull align 8 dereferenceable(40) %12, i1 noundef zeroext false)
  br label %13

13:                                               ; preds = %4, %2
  ret void
}